; Function Attrs: nofree nounwind sspstrong memory(read, inaccessiblemem: write) uwtable
define internal i64 @strhash(i64 noundef %0) #15 {
  %2 = inttoptr i64 %0 to ptr
  %3 = tail call i64 @strlen(ptr noundef nonnull dereferenceable(1) %2) #27
  %4 = icmp ugt i64 %3, 7
  br i1 %4, label %.preheader.i, label %.loopexit.i

.preheader.i:                                     ; preds = %1, %.preheader.i
  %.136.i = phi i64 [ %14, %.preheader.i ], [ 2166136261, %1 ]
  %.134.i = phi ptr [ %15, %.preheader.i ], [ %2, %1 ]
  %.1.i = phi i64 [ %16, %.preheader.i ], [ %3, %1 ]
  call void @llvm.assume(i1 true) [ "align"(ptr %.134.i, i64 8) ]
  %5 = load i64, ptr %.134.i, align 8, !tbaa !7
  %6 = mul i64 %5, -8663945395140668459
  %7 = mul i64 %5, 2487297242801635328
  %8 = lshr i64 %6, 31
  %9 = or disjoint i64 %8, %7
  %10 = xor i64 %9, %.136.i
  %11 = mul i64 %10, 5545529020109919103
  %12 = mul i64 %10, 4838912824426102784
  %13 = lshr i64 %11, 40
  %14 = or disjoint i64 %13, %12
  %15 = getelementptr i8, ptr %.134.i, i64 8
  %16 = add i64 %.1.i, -8
  %17 = icmp ugt i64 %16, 7
  br i1 %17, label %.preheader.i, label %.loopexit.i, !llvm.loop !68

.loopexit.i:                                      ; preds = %.preheader.i, %1
  %.035.i = phi i64 [ 2166136261, %1 ], [ %14, %.preheader.i ]
  %.033.i = phi ptr [ %2, %1 ], [ %15, %.preheader.i ]
  %.0.i = phi i64 [ %3, %1 ], [ %16, %.preheader.i ]
  switch i64 %.0.i, label %.unreachabledefault.i [
    i64 7, label %18
    i64 6, label %23
    i64 5, label %29
    i64 4, label %35
    i64 3, label %39
    i64 2, label %44
    i64 1, label %50
    i64 0, label %rb_st_hash.exit
  ]

18:                                               ; preds = %.loopexit.i
  %19 = getelementptr i8, ptr %.033.i, i64 6
  %20 = load i8, ptr %19, align 1, !tbaa !43
  %21 = zext i8 %20 to i64
  %22 = shl nuw nsw i64 %21, 48
  br label %23

23:                                               ; preds = %18, %.loopexit.i
  %.031.i = phi i64 [ 0, %.loopexit.i ], [ %22, %18 ]
  %24 = getelementptr i8, ptr %.033.i, i64 5
  %25 = load i8, ptr %24, align 1, !tbaa !43
  %26 = zext i8 %25 to i64
  %27 = shl nuw nsw i64 %26, 40
  %28 = or disjoint i64 %27, %.031.i
  br label %29

29:                                               ; preds = %23, %.loopexit.i
  %.132.i = phi i64 [ 0, %.loopexit.i ], [ %28, %23 ]
  %30 = getelementptr i8, ptr %.033.i, i64 4
  %31 = load i8, ptr %30, align 1, !tbaa !43
  %32 = zext i8 %31 to i64
  %33 = shl nuw nsw i64 %32, 32
  %34 = or i64 %33, %.132.i
  br label %35

35:                                               ; preds = %29, %.loopexit.i
  %.2.i = phi i64 [ 0, %.loopexit.i ], [ %34, %29 ]
  call void @llvm.assume(i1 true) [ "align"(ptr %.033.i, i64 8) ]
  %36 = load i32, ptr %.033.i, align 8, !tbaa !46
  %37 = zext i32 %36 to i64
  %38 = or i64 %.2.i, %37
  br label %54

39:                                               ; preds = %.loopexit.i
  %40 = getelementptr i8, ptr %.033.i, i64 2
  %41 = load i8, ptr %40, align 1, !tbaa !43
  %42 = zext i8 %41 to i64
  %43 = shl nuw nsw i64 %42, 16
  br label %44

44:                                               ; preds = %39, %.loopexit.i
  %.3.i = phi i64 [ 0, %.loopexit.i ], [ %43, %39 ]
  %45 = getelementptr i8, ptr %.033.i, i64 1
  %46 = load i8, ptr %45, align 1, !tbaa !43
  %47 = zext i8 %46 to i64
  %48 = shl nuw nsw i64 %47, 8
  %49 = or disjoint i64 %48, %.3.i
  br label %50

50:                                               ; preds = %44, %.loopexit.i
  %.4.i = phi i64 [ 0, %.loopexit.i ], [ %49, %44 ]
  %51 = load i8, ptr %.033.i, align 1, !tbaa !43
  %52 = zext i8 %51 to i64
  %53 = or i64 %.4.i, %52
  br label %54

54:                                               ; preds = %50, %35
  %.5.i = phi i64 [ %53, %50 ], [ %38, %35 ]
  %55 = xor i64 %.5.i, %.035.i
  %56 = shl nuw nsw i64 %.5.i, 7
  %57 = sub i64 %55, %56
  %58 = mul i64 %57, 5545529020109919103
  br label %rb_st_hash.exit

.unreachabledefault.i:                            ; preds = %.loopexit.i
  unreachable

rb_st_hash.exit:                                  ; preds = %.loopexit.i, %54
  %.237.i = phi i64 [ %.035.i, %.loopexit.i ], [ %58, %54 ]
  %59 = xor i64 %.237.i, %3
  %60 = lshr i64 %59, 30
  %61 = xor i64 %60, %59
  %62 = mul i64 %61, -4658895280553007687
  %63 = lshr i64 %62, 27
  %64 = xor i64 %63, %62
  %65 = mul i64 %64, -7723592293110705685
  %66 = lshr i64 %65, 31
  %67 = xor i64 %66, %65
  ret i64 %67
}